target datalayout = "e-m:e-p270:32:32-p271:32:32-p272:64:64-i64:64-i128:128-f80:128-n8:16:32:64-S128"
target triple = "x86_64-pc-linux-gnu"

%struct.Map_ManStruct_t_ = type { ptr, i32, ptr, i32, ptr, i32, i32, ptr, ptr, ptr, ptr, ptr, ptr, ptr, ptr, i32, i32, i32, i32, float, float, float, float, i32, i32, float, i32, i32, i32, i32, ptr, [6 x [2 x i32]], [10 x [32 x i32]], [32 x i32], [32 x i32], ptr, ptr, ptr, ptr, ptr, ptr, i32, i32, i32, i32, i32, i32, i64, i64, i64, i64, i64, i64, i64, i64, i64, i64, i64 }
%struct.Map_NodeStruct_t_ = type { ptr, ptr, i32, i32, i32, i32, [3 x i32], [3 x float], float, ptr, ptr, ptr, ptr, [2 x %struct.Map_TimeStruct_t_], [2 x %struct.Map_TimeStruct_t_], [2 x ptr], ptr, ptr, ptr }
%struct.Map_TimeStruct_t_ = type { float, float, float }
%struct.Map_SuperLibStruct_t_ = type { ptr, ptr, i32, i32, i32, i32, i32, ptr, ptr, ptr, [6 x [2 x i32]], [2 x i32], ptr, %struct.Map_TimeStruct_t_, float, float, ptr, ptr, ptr, ptr }
%struct.Map_NodeVecStruct_t_ = type { ptr, i32, i32 }

; Function Attrs: nounwind uwtable
define void @Map_ManCreateNodeDelays(ptr noundef %0, i32 noundef %1) #0 {
  %3 = alloca ptr, align 8
  %4 = alloca i32, align 4
  %5 = alloca ptr, align 8
  %6 = alloca i32, align 4
  store ptr %0, ptr %3, align 8, !tbaa !3
  store i32 %1, ptr %4, align 4, !tbaa !28
  call void @llvm.lifetime.start.p0(i64 8, ptr %5) #12
  call void @llvm.lifetime.start.p0(i64 4, ptr %6) #12
  %7 = load ptr, ptr %3, align 8, !tbaa !3
  %8 = getelementptr inbounds nuw %struct.Map_ManStruct_t_, ptr %7, i32 0, i32 8
  %9 = load ptr, ptr %8, align 8, !tbaa !96
  %10 = getelementptr inbounds nuw %struct.Map_NodeVecStruct_t_, ptr %9, i32 0, i32 1
  %11 = load i32, ptr %10, align 8, !tbaa !110
  %12 = sext i32 %11 to i64
  %13 = call noalias ptr @calloc(i64 noundef %12, i64 noundef 4) #11
  %14 = load ptr, ptr %3, align 8, !tbaa !3
  %15 = getelementptr inbounds nuw %struct.Map_ManStruct_t_, ptr %14, i32 0, i32 10
  store ptr %13, ptr %15, align 8, !tbaa !109
  store i32 0, ptr %6, align 4, !tbaa !28
  br label %16

16:                                               ; preds = %64, %2
  %17 = load i32, ptr %6, align 4, !tbaa !28
  %18 = load ptr, ptr %3, align 8, !tbaa !3
  %19 = getelementptr inbounds nuw %struct.Map_ManStruct_t_, ptr %18, i32 0, i32 8
  %20 = load ptr, ptr %19, align 8, !tbaa !96
  %21 = getelementptr inbounds nuw %struct.Map_NodeVecStruct_t_, ptr %20, i32 0, i32 1
  %22 = load i32, ptr %21, align 8, !tbaa !110
  %23 = icmp slt i32 %17, %22
  br i1 %23, label %24, label %67

24:                                               ; preds = %16
  %25 = load ptr, ptr %3, align 8, !tbaa !3
  %26 = getelementptr inbounds nuw %struct.Map_ManStruct_t_, ptr %25, i32 0, i32 8
  %27 = load ptr, ptr %26, align 8, !tbaa !96
  %28 = getelementptr inbounds nuw %struct.Map_NodeVecStruct_t_, ptr %27, i32 0, i32 0
  %29 = load ptr, ptr %28, align 8, !tbaa !112
  %30 = load i32, ptr %6, align 4, !tbaa !28
  %31 = sext i32 %30 to i64
  %32 = getelementptr inbounds ptr, ptr %29, i64 %31
  %33 = load ptr, ptr %32, align 8, !tbaa !29
  store ptr %33, ptr %5, align 8, !tbaa !29
  %34 = load ptr, ptr %5, align 8, !tbaa !29
  %35 = getelementptr inbounds nuw %struct.Map_NodeStruct_t_, ptr %34, i32 0, i32 4
  %36 = load i32, ptr %35, align 8, !tbaa !105
  %37 = icmp eq i32 %36, 0
  br i1 %37, label %38, label %39

38:                                               ; preds = %24
  br label %64

39:                                               ; preds = %24
  %40 = load i32, ptr %4, align 4, !tbaa !28
  %41 = sitofp i32 %40 to double
  %42 = fmul double 1.442600e-02, %41
  %43 = load ptr, ptr %3, align 8, !tbaa !3
  %44 = getelementptr inbounds nuw %struct.Map_ManStruct_t_, ptr %43, i32 0, i32 30
  %45 = load ptr, ptr %44, align 8, !tbaa !36
  %46 = getelementptr inbounds nuw %struct.Map_SuperLibStruct_t_, ptr %45, i32 0, i32 13
  %47 = getelementptr inbounds nuw %struct.Map_TimeStruct_t_, ptr %46, i32 0, i32 2
  %48 = load float, ptr %47, align 8, !tbaa !113
  %49 = fpext float %48 to double
  %50 = fmul double %42, %49
  %51 = load ptr, ptr %5, align 8, !tbaa !29
  %52 = getelementptr inbounds nuw %struct.Map_NodeStruct_t_, ptr %51, i32 0, i32 4
  %53 = load i32, ptr %52, align 8, !tbaa !105
  %54 = sitofp i32 %53 to double
  %55 = call double @log(double noundef %54) #12, !tbaa !28
  %56 = fmul double %50, %55
  %57 = fptrunc double %56 to float
  %58 = load ptr, ptr %3, align 8, !tbaa !3
  %59 = getelementptr inbounds nuw %struct.Map_ManStruct_t_, ptr %58, i32 0, i32 10
  %60 = load ptr, ptr %59, align 8, !tbaa !109
  %61 = load i32, ptr %6, align 4, !tbaa !28
  %62 = sext i32 %61 to i64
  %63 = getelementptr inbounds float, ptr %60, i64 %62
  store float %57, ptr %63, align 4, !tbaa !52
  br label %64

64:                                               ; preds = %39, %38
  %65 = load i32, ptr %6, align 4, !tbaa !28
  %66 = add nsw i32 %65, 1
  store i32 %66, ptr %6, align 4, !tbaa !28
  br label %16, !llvm.loop !114

67:                                               ; preds = %16
  call void @llvm.lifetime.end.p0(i64 4, ptr %6) #12
  call void @llvm.lifetime.end.p0(i64 8, ptr %5) #12
  ret void
}