; Function Attrs: nofree nounwind uwtable
define void @Map_ManCreateNodeDelays(ptr noundef captures(none) initializes((72, 80)) %0, i32 noundef %1) local_unnamed_addr #14 {
  %3 = getelementptr inbounds nuw i8, ptr %0, i64 56
  %4 = load ptr, ptr %3, align 8, !tbaa !96
  %5 = getelementptr inbounds nuw i8, ptr %4, i64 8
  %6 = load i32, ptr %5, align 8, !tbaa !104
  %7 = sext i32 %6 to i64
  %8 = tail call noalias ptr @calloc(i64 noundef %7, i64 noundef 4) #24
  %9 = getelementptr inbounds nuw i8, ptr %0, i64 72
  store ptr %8, ptr %9, align 8, !tbaa !103
  %10 = icmp sgt i32 %6, 0
  br i1 %10, label %.lr.ph, label %._crit_edge

.lr.ph:                                           ; preds = %2
  %11 = load ptr, ptr %4, align 8, !tbaa !106
  %12 = sitofp i32 %1 to double
  %13 = fmul double %12, 1.442600e-02
  %14 = getelementptr inbounds nuw i8, ptr %0, i64 176
  br label %15

15:                                               ; preds = %.lr.ph, %33
  %16 = phi i32 [ %6, %.lr.ph ], [ %34, %33 ]
  %indvars.iv = phi i64 [ 0, %.lr.ph ], [ %indvars.iv.next, %33 ]
  %17 = getelementptr inbounds nuw ptr, ptr %11, i64 %indvars.iv
  %18 = load ptr, ptr %17, align 8, !tbaa !26
  %19 = getelementptr inbounds nuw i8, ptr %18, i64 24
  %20 = load i32, ptr %19, align 8, !tbaa !99
  %21 = icmp eq i32 %20, 0
  br i1 %21, label %33, label %22

22:                                               ; preds = %15
  %23 = load ptr, ptr %14, align 8, !tbaa !34
  %24 = getelementptr inbounds nuw i8, ptr %23, i64 136
  %25 = load float, ptr %24, align 8, !tbaa !107
  %26 = fpext float %25 to double
  %27 = fmul double %13, %26
  %28 = sitofp i32 %20 to double
  %29 = tail call double @log(double noundef %28) #23, !tbaa !62
  %30 = fmul double %29, %27
  %31 = fptrunc double %30 to float
  %32 = getelementptr inbounds nuw float, ptr %8, i64 %indvars.iv
  store float %31, ptr %32, align 4, !tbaa !81
  %.pre = load i32, ptr %5, align 8, !tbaa !104
  br label %33

33:                                               ; preds = %15, %22
  %34 = phi i32 [ %16, %15 ], [ %.pre, %22 ]
  %indvars.iv.next = add nuw nsw i64 %indvars.iv, 1
  %35 = sext i32 %34 to i64
  %36 = icmp slt i64 %indvars.iv.next, %35
  br i1 %36, label %15, label %._crit_edge, !llvm.loop !108

._crit_edge:                                      ; preds = %33, %2
  ret void
}